target datalayout = "e-m:e-p270:32:32-p271:32:32-p272:64:64-i64:64-i128:128-f80:128-n8:16:32:64-S128"
target triple = "x86_64-pc-linux-gnu"

%struct.Gia_Man_t_ = type { ptr, ptr, i32, i32, i32, i32, ptr, ptr, i32, i32, i32, ptr, ptr, %struct.Vec_Int_t_, %struct.Vec_Int_t_, i32, i32, i32, %struct.Vec_Int_t_, ptr, ptr, ptr, i32, i32, i32, i32, ptr, ptr, ptr, ptr, ptr, i32, i32, ptr, i32, ptr, ptr, ptr, ptr, ptr, ptr, ptr, ptr, ptr, ptr, ptr, ptr, ptr, ptr, ptr, ptr, ptr, ptr, %struct.Vec_Int_t_, %struct.Vec_Int_t_, ptr, ptr, ptr, ptr, ptr, ptr, ptr, ptr, ptr, ptr, ptr, ptr, ptr, ptr, ptr, ptr, ptr, ptr, ptr, ptr, ptr, i32, float, float, ptr, ptr, i32, ptr, ptr, ptr, ptr, ptr, ptr, ptr, ptr, ptr, ptr, ptr, ptr, ptr, ptr, ptr, i64, i64, ptr, ptr, i32, i32, i32, i32, i32, i32, i32, i32, i32, i32, i32, i32, ptr, ptr, ptr, ptr, ptr, ptr, ptr, ptr, i32, i32, i32, ptr, i32, i32, ptr, ptr, ptr, ptr, ptr, ptr, i32, i32, ptr, %struct.Vec_Int_t_, %struct.Vec_Int_t_, %struct.Vec_Int_t_, ptr, ptr, ptr, i32, i32, i32, i32, ptr, ptr, ptr, ptr, ptr }
%struct.Vec_Int_t_ = type { i32, i32, ptr }
%struct.Gia_Obj_t_ = type <{ i64, i32 }>

@s_PrimeC = internal global i32 49, align 4

; Function Attrs: inlinehint nounwind uwtable
define internal i32 @Vec_IntEntry(ptr noundef %0, i32 noundef %1) #2 {
  %3 = alloca ptr, align 8
  %4 = alloca i32, align 4
  store ptr %0, ptr %3, align 8, !tbaa !8
  store i32 %1, ptr %4, align 4, !tbaa !10
  %5 = load ptr, ptr %3, align 8, !tbaa !8
  %6 = getelementptr inbounds nuw %struct.Vec_Int_t_, ptr %5, i32 0, i32 2
  %7 = load ptr, ptr %6, align 8, !tbaa !36
  %8 = load i32, ptr %4, align 4, !tbaa !10
  %9 = sext i32 %8 to i64
  %10 = getelementptr inbounds i32, ptr %7, i64 %9
  %11 = load i32, ptr %10, align 4, !tbaa !10
  ret i32 %11
}

; Function Attrs: inlinehint nounwind uwtable
define internal i32 @Vec_IntSize(ptr noundef %0) #2 {
  %2 = alloca ptr, align 8
  store ptr %0, ptr %2, align 8, !tbaa !8
  %3 = load ptr, ptr %2, align 8, !tbaa !8
  %4 = getelementptr inbounds nuw %struct.Vec_Int_t_, ptr %3, i32 0, i32 1
  %5 = load i32, ptr %4, align 4, !tbaa !34
  ret i32 %5
}

; Function Attrs: inlinehint nounwind uwtable
define internal ptr @Gia_ManCi(ptr noundef %0, i32 noundef %1) #2 {
  %3 = alloca ptr, align 8
  %4 = alloca i32, align 4
  store ptr %0, ptr %3, align 8, !tbaa !3
  store i32 %1, ptr %4, align 4, !tbaa !10
  %5 = load ptr, ptr %3, align 8, !tbaa !3
  %6 = load ptr, ptr %3, align 8, !tbaa !3
  %7 = getelementptr inbounds nuw %struct.Gia_Man_t_, ptr %6, i32 0, i32 11
  %8 = load ptr, ptr %7, align 8, !tbaa !46
  %9 = load i32, ptr %4, align 4, !tbaa !10
  %10 = call i32 @Vec_IntEntry(ptr noundef %8, i32 noundef %9)
  %11 = call ptr @Gia_ManObj(ptr noundef %5, i32 noundef %10)
  ret ptr %11
}

; Function Attrs: inlinehint nounwind uwtable
define internal i32 @Gia_ManPiNum(ptr noundef %0) #2 {
  %2 = alloca ptr, align 8
  store ptr %0, ptr %2, align 8, !tbaa !3
  %3 = load ptr, ptr %2, align 8, !tbaa !3
  %4 = getelementptr inbounds nuw %struct.Gia_Man_t_, ptr %3, i32 0, i32 11
  %5 = load ptr, ptr %4, align 8, !tbaa !46
  %6 = call i32 @Vec_IntSize(ptr noundef %5)
  %7 = load ptr, ptr %2, align 8, !tbaa !3
  %8 = getelementptr inbounds nuw %struct.Gia_Man_t_, ptr %7, i32 0, i32 2
  %9 = load i32, ptr %8, align 8, !tbaa !44
  %10 = sub nsw i32 %6, %9
  ret i32 %10
}

; Function Attrs: inlinehint nounwind uwtable
define internal ptr @Gia_ManCo(ptr noundef %0, i32 noundef %1) #2 {
  %3 = alloca ptr, align 8
  %4 = alloca i32, align 4
  store ptr %0, ptr %3, align 8, !tbaa !3
  store i32 %1, ptr %4, align 4, !tbaa !10
  %5 = load ptr, ptr %3, align 8, !tbaa !3
  %6 = load ptr, ptr %3, align 8, !tbaa !3
  %7 = getelementptr inbounds nuw %struct.Gia_Man_t_, ptr %6, i32 0, i32 12
  %8 = load ptr, ptr %7, align 8, !tbaa !45
  %9 = load i32, ptr %4, align 4, !tbaa !10
  %10 = call i32 @Vec_IntEntry(ptr noundef %8, i32 noundef %9)
  %11 = call ptr @Gia_ManObj(ptr noundef %5, i32 noundef %10)
  ret ptr %11
}

; Function Attrs: inlinehint nounwind uwtable
define internal i32 @Gia_ManPoNum(ptr noundef %0) #2 {
  %2 = alloca ptr, align 8
  store ptr %0, ptr %2, align 8, !tbaa !3
  %3 = load ptr, ptr %2, align 8, !tbaa !3
  %4 = getelementptr inbounds nuw %struct.Gia_Man_t_, ptr %3, i32 0, i32 12
  %5 = load ptr, ptr %4, align 8, !tbaa !45
  %6 = call i32 @Vec_IntSize(ptr noundef %5)
  %7 = load ptr, ptr %2, align 8, !tbaa !3
  %8 = getelementptr inbounds nuw %struct.Gia_Man_t_, ptr %7, i32 0, i32 2
  %9 = load i32, ptr %8, align 8, !tbaa !44
  %10 = sub nsw i32 %6, %9
  ret i32 %10
}

; Function Attrs: inlinehint nounwind uwtable
define internal i32 @Gia_ManRegNum(ptr noundef %0) #2 {
  %2 = alloca ptr, align 8
  store ptr %0, ptr %2, align 8, !tbaa !3
  %3 = load ptr, ptr %2, align 8, !tbaa !3
  %4 = getelementptr inbounds nuw %struct.Gia_Man_t_, ptr %3, i32 0, i32 2
  %5 = load i32, ptr %4, align 8, !tbaa !44
  ret i32 %5
}

; Function Attrs: inlinehint nounwind uwtable
define internal i32 @Gia_ObjIsCo(ptr noundef %0) #2 {
  %2 = alloca ptr, align 8
  store ptr %0, ptr %2, align 8, !tbaa !31
  %3 = load ptr, ptr %2, align 8, !tbaa !31
  %4 = load i64, ptr %3, align 4
  %5 = lshr i64 %4, 31
  %6 = and i64 %5, 1
  %7 = trunc i64 %6 to i32
  %8 = icmp ne i32 %7, 0
  br i1 %8, label %9, label %15

9:                                                ; preds = %1
  %10 = load ptr, ptr %2, align 8, !tbaa !31
  %11 = load i64, ptr %10, align 4
  %12 = and i64 %11, 536870911
  %13 = trunc i64 %12 to i32
  %14 = icmp ne i32 %13, 536870911
  br label %15

15:                                               ; preds = %9, %1
  %16 = phi i1 [ false, %1 ], [ %14, %9 ]
  %17 = zext i1 %16 to i32
  ret i32 %17
}

; Function Attrs: inlinehint nounwind uwtable
define internal ptr @Gia_ObjFanin1(ptr noundef %0) #2 {
  %2 = alloca ptr, align 8
  store ptr %0, ptr %2, align 8, !tbaa !31
  %3 = load ptr, ptr %2, align 8, !tbaa !31
  %4 = load ptr, ptr %2, align 8, !tbaa !31
  %5 = load i64, ptr %4, align 4
  %6 = lshr i64 %5, 32
  %7 = and i64 %6, 536870911
  %8 = trunc i64 %7 to i32
  %9 = sext i32 %8 to i64
  %10 = sub i64 0, %9
  %11 = getelementptr inbounds %struct.Gia_Obj_t_, ptr %3, i64 %10
  ret ptr %11
}

; Function Attrs: inlinehint nounwind uwtable
define internal i32 @Gia_ObjFaninC1(ptr noundef %0) #2 {
  %2 = alloca ptr, align 8
  store ptr %0, ptr %2, align 8, !tbaa !31
  %3 = load ptr, ptr %2, align 8, !tbaa !31
  %4 = load i64, ptr %3, align 4
  %5 = lshr i64 %4, 61
  %6 = and i64 %5, 1
  %7 = trunc i64 %6 to i32
  ret i32 %7
}

; Function Attrs: inlinehint nounwind uwtable
define internal ptr @Gia_ObjFanin0(ptr noundef %0) #2 {
  %2 = alloca ptr, align 8
  store ptr %0, ptr %2, align 8, !tbaa !31
  %3 = load ptr, ptr %2, align 8, !tbaa !31
  %4 = load ptr, ptr %2, align 8, !tbaa !31
  %5 = load i64, ptr %4, align 4
  %6 = and i64 %5, 536870911
  %7 = trunc i64 %6 to i32
  %8 = sext i32 %7 to i64
  %9 = sub i64 0, %8
  %10 = getelementptr inbounds %struct.Gia_Obj_t_, ptr %3, i64 %9
  ret ptr %10
}

; Function Attrs: inlinehint nounwind uwtable
define internal i32 @Gia_ObjFaninC0(ptr noundef %0) #2 {
  %2 = alloca ptr, align 8
  store ptr %0, ptr %2, align 8, !tbaa !31
  %3 = load ptr, ptr %2, align 8, !tbaa !31
  %4 = load i64, ptr %3, align 4
  %5 = lshr i64 %4, 29
  %6 = and i64 %5, 1
  %7 = trunc i64 %6 to i32
  ret i32 %7
}

; Function Attrs: inlinehint nounwind uwtable
define internal i32 @Gia_ObjIsAnd(ptr noundef %0) #2 {
  %2 = alloca ptr, align 8
  store ptr %0, ptr %2, align 8, !tbaa !31
  %3 = load ptr, ptr %2, align 8, !tbaa !31
  %4 = load i64, ptr %3, align 4
  %5 = lshr i64 %4, 31
  %6 = and i64 %5, 1
  %7 = trunc i64 %6 to i32
  %8 = icmp ne i32 %7, 0
  br i1 %8, label %15, label %9

9:                                                ; preds = %1
  %10 = load ptr, ptr %2, align 8, !tbaa !31
  %11 = load i64, ptr %10, align 4
  %12 = and i64 %11, 536870911
  %13 = trunc i64 %12 to i32
  %14 = icmp ne i32 %13, 536870911
  br label %15

15:                                               ; preds = %9, %1
  %16 = phi i1 [ false, %1 ], [ %14, %9 ]
  %17 = zext i1 %16 to i32
  ret i32 %17
}

; Function Attrs: inlinehint nounwind uwtable
define internal ptr @Gia_ManObj(ptr noundef %0, i32 noundef %1) #2 {
  %3 = alloca ptr, align 8
  %4 = alloca i32, align 4
  store ptr %0, ptr %3, align 8, !tbaa !3
  store i32 %1, ptr %4, align 4, !tbaa !10
  %5 = load ptr, ptr %3, align 8, !tbaa !3
  %6 = getelementptr inbounds nuw %struct.Gia_Man_t_, ptr %5, i32 0, i32 6
  %7 = load ptr, ptr %6, align 8, !tbaa !37
  %8 = load i32, ptr %4, align 4, !tbaa !10
  %9 = sext i32 %8 to i64
  %10 = getelementptr inbounds %struct.Gia_Obj_t_, ptr %7, i64 %9
  ret ptr %10
}

; Function Attrs: nounwind uwtable
define void @Gia_Iso2ManPropagate(ptr noundef %0) #0 {
  %2 = alloca ptr, align 8
  %3 = alloca ptr, align 8
  %4 = alloca ptr, align 8
  %5 = alloca i32, align 4
  store ptr %0, ptr %2, align 8, !tbaa !3
  call void @llvm.lifetime.start.p0(i64 8, ptr %3) #12
  call void @llvm.lifetime.start.p0(i64 8, ptr %4) #12
  call void @llvm.lifetime.start.p0(i64 4, ptr %5) #12
  store i32 1, ptr %5, align 4, !tbaa !10
  br label %6

6:                                                ; preds = %89, %1
  %7 = load i32, ptr %5, align 4, !tbaa !10
  %8 = load ptr, ptr %2, align 8, !tbaa !3
  %9 = getelementptr inbounds nuw %struct.Gia_Man_t_, ptr %8, i32 0, i32 4
  %10 = load i32, ptr %9, align 8, !tbaa !12
  %11 = icmp slt i32 %7, %10
  br i1 %11, label %12, label %17

12:                                               ; preds = %6
  %13 = load ptr, ptr %2, align 8, !tbaa !3
  %14 = load i32, ptr %5, align 4, !tbaa !10
  %15 = call ptr @Gia_ManObj(ptr noundef %13, i32 noundef %14)
  store ptr %15, ptr %3, align 8, !tbaa !31
  %16 = icmp ne ptr %15, null
  br label %17

17:                                               ; preds = %12, %6
  %18 = phi i1 [ false, %6 ], [ %16, %12 ]
  br i1 %18, label %19, label %92

19:                                               ; preds = %17
  %20 = load ptr, ptr %3, align 8, !tbaa !31
  %21 = call i32 @Gia_ObjIsAnd(ptr noundef %20)
  %22 = icmp ne i32 %21, 0
  br i1 %22, label %23, label %69

23:                                               ; preds = %19
  %24 = load ptr, ptr %3, align 8, !tbaa !31
  %25 = call i32 @Gia_ObjFaninC0(ptr noundef %24)
  %26 = load i32, ptr @s_PrimeC, align 4, !tbaa !10
  %27 = add nsw i32 %25, %26
  %28 = load ptr, ptr %3, align 8, !tbaa !31
  %29 = call ptr @Gia_ObjFanin0(ptr noundef %28)
  %30 = getelementptr inbounds nuw %struct.Gia_Obj_t_, ptr %29, i32 0, i32 1
  %31 = load i32, ptr %30, align 4, !tbaa !38
  %32 = mul i32 %27, %31
  %33 = load ptr, ptr %3, align 8, !tbaa !31
  %34 = call i32 @Gia_ObjFaninC1(ptr noundef %33)
  %35 = load i32, ptr @s_PrimeC, align 4, !tbaa !10
  %36 = add nsw i32 %34, %35
  %37 = load ptr, ptr %3, align 8, !tbaa !31
  %38 = call ptr @Gia_ObjFanin1(ptr noundef %37)
  %39 = getelementptr inbounds nuw %struct.Gia_Obj_t_, ptr %38, i32 0, i32 1
  %40 = load i32, ptr %39, align 4, !tbaa !38
  %41 = mul i32 %36, %40
  %42 = add i32 %32, %41
  %43 = load ptr, ptr %3, align 8, !tbaa !31
  %44 = getelementptr inbounds nuw %struct.Gia_Obj_t_, ptr %43, i32 0, i32 1
  %45 = load i32, ptr %44, align 4, !tbaa !38
  %46 = add i32 %45, %42
  store i32 %46, ptr %44, align 4, !tbaa !38
  %47 = load ptr, ptr %3, align 8, !tbaa !31
  %48 = call i32 @Gia_ObjFaninC0(ptr noundef %47)
  %49 = load ptr, ptr %3, align 8, !tbaa !31
  %50 = call i32 @Gia_ObjFaninC1(ptr noundef %49)
  %51 = icmp eq i32 %48, %50
  br i1 %51, label %52, label %68

52:                                               ; preds = %23
  %53 = load ptr, ptr %3, align 8, !tbaa !31
  %54 = call ptr @Gia_ObjFanin0(ptr noundef %53)
  %55 = getelementptr inbounds nuw %struct.Gia_Obj_t_, ptr %54, i32 0, i32 1
  %56 = load i32, ptr %55, align 4, !tbaa !38
  %57 = load ptr, ptr %3, align 8, !tbaa !31
  %58 = call ptr @Gia_ObjFanin1(ptr noundef %57)
  %59 = getelementptr inbounds nuw %struct.Gia_Obj_t_, ptr %58, i32 0, i32 1
  %60 = load i32, ptr %59, align 4, !tbaa !38
  %61 = icmp eq i32 %56, %60
  br i1 %61, label %62, label %68

62:                                               ; preds = %52
  %63 = load i32, ptr getelementptr inbounds ([256 x i32], ptr @s_256Primes, i64 0, i64 244), align 16, !tbaa !10
  %64 = load ptr, ptr %3, align 8, !tbaa !31
  %65 = getelementptr inbounds nuw %struct.Gia_Obj_t_, ptr %64, i32 0, i32 1
  %66 = load i32, ptr %65, align 4, !tbaa !38
  %67 = add i32 %66, %63
  store i32 %67, ptr %65, align 4, !tbaa !38
  br label %68

68:                                               ; preds = %62, %52, %23
  br label %88

69:                                               ; preds = %19
  %70 = load ptr, ptr %3, align 8, !tbaa !31
  %71 = call i32 @Gia_ObjIsCo(ptr noundef %70)
  %72 = icmp ne i32 %71, 0
  br i1 %72, label %73, label %87

73:                                               ; preds = %69
  %74 = load ptr, ptr %3, align 8, !tbaa !31
  %75 = call i32 @Gia_ObjFaninC0(ptr noundef %74)
  %76 = load i32, ptr @s_PrimeC, align 4, !tbaa !10
  %77 = add nsw i32 %75, %76
  %78 = load ptr, ptr %3, align 8, !tbaa !31
  %79 = call ptr @Gia_ObjFanin0(ptr noundef %78)
  %80 = getelementptr inbounds nuw %struct.Gia_Obj_t_, ptr %79, i32 0, i32 1
  %81 = load i32, ptr %80, align 4, !tbaa !38
  %82 = mul i32 %77, %81
  %83 = load ptr, ptr %3, align 8, !tbaa !31
  %84 = getelementptr inbounds nuw %struct.Gia_Obj_t_, ptr %83, i32 0, i32 1
  %85 = load i32, ptr %84, align 4, !tbaa !38
  %86 = add i32 %85, %82
  store i32 %86, ptr %84, align 4, !tbaa !38
  br label %87

87:                                               ; preds = %73, %69
  br label %88

88:                                               ; preds = %87, %68
  br label %89

89:                                               ; preds = %88
  %90 = load i32, ptr %5, align 4, !tbaa !10
  %91 = add nsw i32 %90, 1
  store i32 %91, ptr %5, align 4, !tbaa !10
  br label %6, !llvm.loop !42

92:                                               ; preds = %17
  store i32 0, ptr %5, align 4, !tbaa !10
  br label %93

93:                                               ; preds = %135, %92
  %94 = load i32, ptr %5, align 4, !tbaa !10
  %95 = load ptr, ptr %2, align 8, !tbaa !3
  %96 = call i32 @Gia_ManRegNum(ptr noundef %95)
  %97 = icmp slt i32 %94, %96
  br i1 %97, label %98, label %114

98:                                               ; preds = %93
  %99 = load ptr, ptr %2, align 8, !tbaa !3
  %100 = load ptr, ptr %2, align 8, !tbaa !3
  %101 = call i32 @Gia_ManPoNum(ptr noundef %100)
  %102 = load i32, ptr %5, align 4, !tbaa !10
  %103 = add nsw i32 %101, %102
  %104 = call ptr @Gia_ManCo(ptr noundef %99, i32 noundef %103)
  store ptr %104, ptr %3, align 8, !tbaa !31
  %105 = icmp ne ptr %104, null
  br i1 %105, label %106, label %114

106:                                              ; preds = %98
  %107 = load ptr, ptr %2, align 8, !tbaa !3
  %108 = load ptr, ptr %2, align 8, !tbaa !3
  %109 = call i32 @Gia_ManPiNum(ptr noundef %108)
  %110 = load i32, ptr %5, align 4, !tbaa !10
  %111 = add nsw i32 %109, %110
  %112 = call ptr @Gia_ManCi(ptr noundef %107, i32 noundef %111)
  store ptr %112, ptr %4, align 8, !tbaa !31
  %113 = icmp ne ptr %112, null
  br label %114

114:                                              ; preds = %106, %98, %93
  %115 = phi i1 [ false, %98 ], [ false, %93 ], [ %113, %106 ]
  br i1 %115, label %116, label %138

116:                                              ; preds = %114
  %117 = load ptr, ptr %3, align 8, !tbaa !31
  %118 = getelementptr inbounds nuw %struct.Gia_Obj_t_, ptr %117, i32 0, i32 1
  %119 = load i32, ptr %118, align 4, !tbaa !38
  %120 = load ptr, ptr %4, align 8, !tbaa !31
  %121 = getelementptr inbounds nuw %struct.Gia_Obj_t_, ptr %120, i32 0, i32 1
  %122 = load i32, ptr %121, align 4, !tbaa !38
  %123 = add i32 %122, %119
  store i32 %123, ptr %121, align 4, !tbaa !38
  %124 = load ptr, ptr %4, align 8, !tbaa !31
  %125 = load ptr, ptr %3, align 8, !tbaa !31
  %126 = call ptr @Gia_ObjFanin0(ptr noundef %125)
  %127 = icmp eq ptr %124, %126
  br i1 %127, label %128, label %134

128:                                              ; preds = %116
  %129 = load i32, ptr getelementptr inbounds ([256 x i32], ptr @s_256Primes, i64 0, i64 243), align 4, !tbaa !10
  %130 = load ptr, ptr %4, align 8, !tbaa !31
  %131 = getelementptr inbounds nuw %struct.Gia_Obj_t_, ptr %130, i32 0, i32 1
  %132 = load i32, ptr %131, align 4, !tbaa !38
  %133 = add i32 %132, %129
  store i32 %133, ptr %131, align 4, !tbaa !38
  br label %134

134:                                              ; preds = %128, %116
  br label %135

135:                                              ; preds = %134
  %136 = load i32, ptr %5, align 4, !tbaa !10
  %137 = add nsw i32 %136, 1
  store i32 %137, ptr %5, align 4, !tbaa !10
  br label %93, !llvm.loop !43

138:                                              ; preds = %114
  call void @llvm.lifetime.end.p0(i64 4, ptr %5) #12
  call void @llvm.lifetime.end.p0(i64 8, ptr %4) #12
  call void @llvm.lifetime.end.p0(i64 8, ptr %3) #12
  ret void
}