; Function Attrs: nofree norecurse nosync nounwind memory(readwrite, inaccessiblemem: none) uwtable
define void @Gia_Iso2ManPropagate(ptr noundef readonly captures(none) %0) local_unnamed_addr #2 {
  %2 = getelementptr inbounds nuw i8, ptr %0, i64 24
  %3 = load i32, ptr %2, align 8, !tbaa !29
  %4 = icmp sgt i32 %3, 1
  br i1 %4, label %.lr.ph, label %.critedge.preheader

.lr.ph:                                           ; preds = %1
  %5 = getelementptr i8, ptr %0, i64 32
  %.val = load ptr, ptr %5, align 8, !tbaa !33
  %wide.trip.count = zext nneg i32 %3 to i64
  br label %15

.critedge.preheader:                              ; preds = %63, %1
  %6 = getelementptr i8, ptr %0, i64 16
  %.val51 = load i32, ptr %6, align 8, !tbaa !40
  %7 = icmp sgt i32 %.val51, 0
  br i1 %7, label %.lr.ph62, label %.critedge2

.lr.ph62:                                         ; preds = %.critedge.preheader
  %8 = getelementptr i8, ptr %0, i64 72
  %.val53 = load ptr, ptr %8, align 8, !tbaa !30
  %9 = getelementptr i8, ptr %.val53, i64 4
  %.val53.val = load i32, ptr %9, align 4, !tbaa !28
  %invariant.op = sub i32 %.val53.val, %.val51
  %10 = getelementptr i8, ptr %0, i64 32
  %.val54 = load ptr, ptr %10, align 8, !tbaa !33
  %11 = getelementptr i8, ptr %.val53, i64 8
  %.val55.val = load ptr, ptr %11, align 8, !tbaa !32
  %.not38 = icmp eq ptr %.val54, null
  br i1 %.not38, label %.critedge2, label %.lr.ph62.split

.lr.ph62.split:                                   ; preds = %.lr.ph62
  %12 = getelementptr i8, ptr %0, i64 64
  %.val49 = load ptr, ptr %12, align 8, !tbaa !3
  %13 = getelementptr i8, ptr %.val49, i64 8
  %.val57.val = load ptr, ptr %13, align 8, !tbaa !32
  %14 = getelementptr i8, ptr %.val49, i64 4
  %.val49.val = load i32, ptr %14, align 4, !tbaa !28
  %invariant.op63 = sub i32 %.val49.val, %.val51
  %wide.trip.count69 = zext nneg i32 %.val51 to i64
  br label %64

15:                                               ; preds = %.lr.ph, %63
  %indvars.iv = phi i64 [ 1, %.lr.ph ], [ %indvars.iv.next, %63 ]
  %16 = getelementptr inbounds nuw %struct.Gia_Obj_t_, ptr %.val, i64 %indvars.iv
  %.val42 = load i64, ptr %16, align 4
  %17 = and i64 %.val42, 2147483648
  %.not.i = icmp eq i64 %17, 0
  %18 = and i64 %.val42, 536870911
  %19 = icmp ne i64 %18, 536870911
  %narrow.i = and i1 %.not.i, %19
  br i1 %narrow.i, label %20, label %50

20:                                               ; preds = %15
  %21 = trunc i64 %.val42 to i32
  %22 = lshr i32 %21, 29
  %23 = and i32 %22, 1
  %24 = add nuw nsw i32 %23, 49
  %25 = sub nsw i64 0, %18
  %26 = getelementptr inbounds %struct.Gia_Obj_t_, ptr %16, i64 %25, i32 1
  %27 = load i32, ptr %26, align 4, !tbaa !37
  %28 = mul i32 %27, %24
  %29 = lshr i64 %.val42, 61
  %30 = trunc nuw nsw i64 %29 to i32
  %31 = and i32 %30, 1
  %32 = add nuw nsw i32 %31, 49
  %33 = lshr i64 %.val42, 32
  %34 = and i64 %33, 536870911
  %35 = sub nsw i64 0, %34
  %36 = getelementptr inbounds %struct.Gia_Obj_t_, ptr %16, i64 %35, i32 1
  %37 = load i32, ptr %36, align 4, !tbaa !37
  %38 = mul i32 %37, %32
  %39 = add i32 %38, %28
  %40 = getelementptr inbounds nuw i8, ptr %16, i64 8
  %41 = load i32, ptr %40, align 4, !tbaa !37
  %42 = add i32 %39, %41
  store i32 %42, ptr %40, align 4, !tbaa !37
  %43 = icmp eq i32 %23, %31
  br i1 %43, label %44, label %63

44:                                               ; preds = %20
  %45 = load i32, ptr %26, align 4, !tbaa !37
  %46 = load i32, ptr %36, align 4, !tbaa !37
  %47 = icmp eq i32 %45, %46
  br i1 %47, label %48, label %63

48:                                               ; preds = %44
  %49 = add i32 %42, -558112784
  store i32 %49, ptr %40, align 4, !tbaa !37
  br label %63

50:                                               ; preds = %15
  %.not.i58 = icmp ne i64 %17, 0
  %narrow.i59 = and i1 %.not.i58, %19
  br i1 %narrow.i59, label %51, label %63

51:                                               ; preds = %50
  %52 = trunc i64 %.val42 to i32
  %53 = lshr i32 %52, 29
  %54 = and i32 %53, 1
  %55 = add nuw nsw i32 %54, 49
  %56 = sub nsw i64 0, %18
  %57 = getelementptr inbounds %struct.Gia_Obj_t_, ptr %16, i64 %56, i32 1
  %58 = load i32, ptr %57, align 4, !tbaa !37
  %59 = mul i32 %58, %55
  %60 = getelementptr inbounds nuw i8, ptr %16, i64 8
  %61 = load i32, ptr %60, align 4, !tbaa !37
  %62 = add i32 %61, %59
  store i32 %62, ptr %60, align 4, !tbaa !37
  br label %63

63:                                               ; preds = %48, %44, %20, %51, %50
  %indvars.iv.next = add nuw nsw i64 %indvars.iv, 1
  %exitcond.not = icmp eq i64 %indvars.iv.next, %wide.trip.count
  br i1 %exitcond.not, label %.critedge.preheader, label %15, !llvm.loop !42

64:                                               ; preds = %.lr.ph62.split, %.critedge
  %indvars.iv66 = phi i64 [ 0, %.lr.ph62.split ], [ %indvars.iv.next67, %.critedge ]
  %65 = trunc nuw nsw i64 %indvars.iv66 to i32
  %.reass = add i32 %invariant.op, %65
  %66 = sext i32 %.reass to i64
  %67 = getelementptr inbounds i32, ptr %.val55.val, i64 %66
  %68 = load i32, ptr %67, align 4, !tbaa !34
  %69 = sext i32 %68 to i64
  %70 = getelementptr inbounds %struct.Gia_Obj_t_, ptr %.val54, i64 %69
  %.reass64 = add i32 %invariant.op63, %65
  %71 = sext i32 %.reass64 to i64
  %72 = getelementptr inbounds i32, ptr %.val57.val, i64 %71
  %73 = load i32, ptr %72, align 4, !tbaa !34
  %74 = sext i32 %73 to i64
  %75 = getelementptr inbounds %struct.Gia_Obj_t_, ptr %.val54, i64 %74
  %76 = getelementptr inbounds nuw i8, ptr %70, i64 8
  %77 = load i32, ptr %76, align 4, !tbaa !37
  %78 = getelementptr inbounds nuw i8, ptr %75, i64 8
  %79 = load i32, ptr %78, align 4, !tbaa !37
  %80 = add i32 %79, %77
  store i32 %80, ptr %78, align 4, !tbaa !37
  %81 = load i64, ptr %70, align 4
  %82 = and i64 %81, 536870911
  %83 = sub nsw i64 0, %82
  %84 = getelementptr inbounds %struct.Gia_Obj_t_, ptr %70, i64 %83
  %85 = icmp eq ptr %75, %84
  br i1 %85, label %86, label %.critedge

86:                                               ; preds = %64
  %87 = add i32 %80, 1673142178
  store i32 %87, ptr %78, align 4, !tbaa !37
  br label %.critedge

.critedge:                                        ; preds = %64, %86
  %indvars.iv.next67 = add nuw nsw i64 %indvars.iv66, 1
  %exitcond70.not = icmp eq i64 %indvars.iv.next67, %wide.trip.count69
  br i1 %exitcond70.not, label %.critedge2, label %64, !llvm.loop !43

.critedge2:                                       ; preds = %.critedge, %.lr.ph62, %.critedge.preheader
  ret void
}